target datalayout = "e-m:e-p270:32:32-p271:32:32-p272:64:64-i64:64-i128:128-f80:128-n8:16:32:64-S128"
target triple = "x86_64-pc-linux-gnu"

%"struct.std::atomic" = type { %"struct.std::__atomic_base" }
%"struct.std::__atomic_base" = type { i8 }
%"class.pxrInternal_v0_24__pxrReserved__::Tf_MallocTagStringMatchTable" = type { %"class.std::vector" }
%"class.std::vector" = type { %"struct.std::_Vector_base" }
%"struct.std::_Vector_base" = type { %"struct.std::_Vector_base<pxrInternal_v0_24__pxrReserved__::Tf_MallocTagStringMatchTable::_MatchString, std::allocator<pxrInternal_v0_24__pxrReserved__::Tf_MallocTagStringMatchTable::_MatchString>>::_Vector_impl" }
%"struct.std::_Vector_base<pxrInternal_v0_24__pxrReserved__::Tf_MallocTagStringMatchTable::_MatchString, std::allocator<pxrInternal_v0_24__pxrReserved__::Tf_MallocTagStringMatchTable::_MatchString>>::_Vector_impl" = type { %"struct.std::_Vector_base<pxrInternal_v0_24__pxrReserved__::Tf_MallocTagStringMatchTable::_MatchString, std::allocator<pxrInternal_v0_24__pxrReserved__::Tf_MallocTagStringMatchTable::_MatchString>>::_Vector_impl_data" }
%"struct.std::_Vector_base<pxrInternal_v0_24__pxrReserved__::Tf_MallocTagStringMatchTable::_MatchString, std::allocator<pxrInternal_v0_24__pxrReserved__::Tf_MallocTagStringMatchTable::_MatchString>>::_Vector_impl_data" = type { ptr, ptr, ptr }
%"struct.pxrInternal_v0_24__pxrReserved__::Tf_MallocGlobalData" = type { %"class.pxrInternal_v0_24__pxrReserved__::TfBigRWMutex", ptr, %"struct.std::atomic.17", %"struct.std::atomic.17", %"class.tbb::detail::d2::concurrent_hash_map", %"class.tbb::detail::d2::concurrent_hash_map.25", %"class.tbb::detail::d2::concurrent_hash_map.30", %"class.pxrInternal_v0_24__pxrReserved__::Tf_MallocTagStringMatchTable", %"class.pxrInternal_v0_24__pxrReserved__::Tf_MallocTagStringMatchTable", %"class.tbb::detail::d2::concurrent_hash_map.35" }
%"class.pxrInternal_v0_24__pxrReserved__::TfBigRWMutex" = type <{ %"class.std::unique_ptr", %"struct.std::atomic", [7 x i8] }>
%"class.std::unique_ptr" = type { %"struct.std::__uniq_ptr_data" }
%"struct.std::__uniq_ptr_data" = type { %"class.std::__uniq_ptr_impl" }
%"class.std::__uniq_ptr_impl" = type { %"class.std::tuple" }
%"class.std::tuple" = type { %"struct.std::_Tuple_impl" }
%"struct.std::_Tuple_impl" = type { %"struct.std::_Head_base.16" }
%"struct.std::_Head_base.16" = type { ptr }
%"struct.std::atomic.17" = type { %"struct.std::__atomic_base.18" }
%"struct.std::__atomic_base.18" = type { i64 }
%"class.tbb::detail::d2::concurrent_hash_map" = type <{ %"class.tbb::detail::d2::hash_map_base", [8 x i8] }>
%"class.tbb::detail::d2::hash_map_base" = type { [8 x i8], %"struct.std::atomic.19", %"struct.std::atomic.19", [2 x %"struct.tbb::detail::d2::hash_map_base<tbb::detail::d1::tbb_allocator<std::pair<const void *const, pxrInternal_v0_24__pxrReserved__::Tf_MallocBlockInfo>>, tbb::detail::d1::spin_rw_mutex>::bucket"], [64 x %"struct.std::atomic.23"] }
%"struct.std::atomic.19" = type { %"struct.std::__atomic_base.20" }
%"struct.std::__atomic_base.20" = type { i64 }
%"struct.tbb::detail::d2::hash_map_base<tbb::detail::d1::tbb_allocator<std::pair<const void *const, pxrInternal_v0_24__pxrReserved__::Tf_MallocBlockInfo>>, tbb::detail::d1::spin_rw_mutex>::bucket" = type { %"class.tbb::detail::d1::spin_rw_mutex", %"struct.std::atomic.21" }
%"class.tbb::detail::d1::spin_rw_mutex" = type { %"struct.std::atomic.17" }
%"struct.std::atomic.21" = type { %"struct.std::__atomic_base.22" }
%"struct.std::__atomic_base.22" = type { ptr }
%"struct.std::atomic.23" = type { %"struct.std::__atomic_base.24" }
%"struct.std::__atomic_base.24" = type { ptr }
%"class.tbb::detail::d2::concurrent_hash_map.25" = type <{ %"class.tbb::detail::d2::hash_map_base.26", [8 x i8] }>
%"class.tbb::detail::d2::hash_map_base.26" = type { [8 x i8], %"struct.std::atomic.19", %"struct.std::atomic.19", [2 x %"struct.tbb::detail::d2::hash_map_base<tbb::detail::d1::tbb_allocator<std::pair<const char *const, pxrInternal_v0_24__pxrReserved__::Tf_MallocCallSite *>>, tbb::detail::d1::spin_rw_mutex>::bucket"], [64 x %"struct.std::atomic.27"] }
%"struct.tbb::detail::d2::hash_map_base<tbb::detail::d1::tbb_allocator<std::pair<const char *const, pxrInternal_v0_24__pxrReserved__::Tf_MallocCallSite *>>, tbb::detail::d1::spin_rw_mutex>::bucket" = type { %"class.tbb::detail::d1::spin_rw_mutex", %"struct.std::atomic.21" }
%"struct.std::atomic.27" = type { %"struct.std::__atomic_base.28" }
%"struct.std::__atomic_base.28" = type { ptr }
%"class.tbb::detail::d2::concurrent_hash_map.30" = type <{ %"class.tbb::detail::d2::hash_map_base.31", [8 x i8] }>
%"class.tbb::detail::d2::hash_map_base.31" = type { [8 x i8], %"struct.std::atomic.19", %"struct.std::atomic.19", [2 x %"struct.tbb::detail::d2::hash_map_base<tbb::detail::d1::tbb_allocator<std::pair<const std::pair<pxrInternal_v0_24__pxrReserved__::Tf_MallocPathNode *, pxrInternal_v0_24__pxrReserved__::Tf_MallocCallSite *>, pxrInternal_v0_24__pxrReserved__::Tf_MallocPathNode *>>, tbb::detail::d1::spin_rw_mutex>::bucket"], [64 x %"struct.std::atomic.32"] }
%"struct.tbb::detail::d2::hash_map_base<tbb::detail::d1::tbb_allocator<std::pair<const std::pair<pxrInternal_v0_24__pxrReserved__::Tf_MallocPathNode *, pxrInternal_v0_24__pxrReserved__::Tf_MallocCallSite *>, pxrInternal_v0_24__pxrReserved__::Tf_MallocPathNode *>>, tbb::detail::d1::spin_rw_mutex>::bucket" = type { %"class.tbb::detail::d1::spin_rw_mutex", %"struct.std::atomic.21" }
%"struct.std::atomic.32" = type { %"struct.std::__atomic_base.33" }
%"struct.std::__atomic_base.33" = type { ptr }
%"class.tbb::detail::d2::concurrent_hash_map.35" = type <{ %"class.tbb::detail::d2::hash_map_base.36", [8 x i8] }>
%"class.tbb::detail::d2::hash_map_base.36" = type { [8 x i8], %"struct.std::atomic.19", %"struct.std::atomic.19", [2 x %"struct.tbb::detail::d2::hash_map_base<tbb::detail::d1::tbb_allocator<std::pair<const void *const, pxrInternal_v0_24__pxrReserved__::TfMallocTag::CallStackInfo>>, tbb::detail::d1::spin_rw_mutex>::bucket"], [64 x %"struct.std::atomic.37"] }
%"struct.tbb::detail::d2::hash_map_base<tbb::detail::d1::tbb_allocator<std::pair<const void *const, pxrInternal_v0_24__pxrReserved__::TfMallocTag::CallStackInfo>>, tbb::detail::d1::spin_rw_mutex>::bucket" = type { %"class.tbb::detail::d1::spin_rw_mutex", %"struct.std::atomic.21" }
%"struct.std::atomic.37" = type { %"struct.std::__atomic_base.38" }
%"struct.std::__atomic_base.38" = type { ptr }
%"struct.pxrInternal_v0_24__pxrReserved__::Tf_MallocCallSite" = type <{ %"class.std::unique_ptr.41", %"struct.std::atomic.17", i32, [4 x i8] }>
%"class.std::unique_ptr.41" = type { %"struct.std::__uniq_ptr_data.42" }
%"struct.std::__uniq_ptr_data.42" = type { %"class.std::__uniq_ptr_impl.43" }
%"class.std::__uniq_ptr_impl.43" = type { %"class.std::tuple.44" }
%"class.std::tuple.44" = type { %"struct.std::_Tuple_impl.45" }
%"struct.std::_Tuple_impl.45" = type { %"struct.std::_Head_base.48" }
%"struct.std::_Head_base.48" = type { ptr }
%"struct.pxrInternal_v0_24__pxrReserved__::Tf_MallocPathNode" = type <{ ptr, %"struct.std::atomic.17", %"struct.std::atomic.17", %"struct.std::atomic", [7 x i8] }>

; Function Attrs: mustprogress uwtable
define internal void @_ZN32pxrInternal_v0_24__pxrReserved__L21Tf_MallocTagDebugHookEPKvm(ptr noundef %0, i64 noundef %1) #0 {
  %3 = alloca ptr, align 8
  %4 = alloca i64, align 8
  store ptr %0, ptr %3, align 8
  store i64 %1, ptr %4, align 8
  br label %5

5:                                                ; preds = %2
  call void @_ZN32pxrInternal_v0_24__pxrReserved__16ArchDebuggerTrapEv()
  call void asm sideeffect "", "~{dirflag},~{fpsr},~{flags}"() #6, !srcloc !9
  br label %6

6:                                                ; preds = %5
  ret void
}

; Function Attrs: mustprogress uwtable
define linkonce_odr noundef zeroext i1 @_ZN3tbb6detail2d219concurrent_hash_mapIPKvN32pxrInternal_v0_24__pxrReserved__11TfMallocTag13CallStackInfoENS0_2d116tbb_hash_compareIS4_EENS8_13tbb_allocatorISt4pairIKS4_S7_EEEE5eraseERSD_(ptr noundef nonnull align 8 dereferenceable(570) %0, ptr noundef nonnull align 8 dereferenceable(8) %1) #0 comdat align 2 {
  %3 = alloca ptr, align 8
  %4 = alloca ptr, align 8
  store ptr %0, ptr %3, align 8
  store ptr %1, ptr %4, align 8
  %5 = load ptr, ptr %3, align 8
  %6 = load ptr, ptr %4, align 8
  %7 = call noundef zeroext i1 @_ZN3tbb6detail2d219concurrent_hash_mapIPKvN32pxrInternal_v0_24__pxrReserved__11TfMallocTag13CallStackInfoENS0_2d116tbb_hash_compareIS4_EENS8_13tbb_allocatorISt4pairIKS4_S7_EEEE14internal_eraseIS4_EEbRKT_(ptr noundef nonnull align 8 dereferenceable(570) %5, ptr noundef nonnull align 8 dereferenceable(8) %6)
  ret i1 %7
}

; Function Attrs: mustprogress uwtable
define void @_ZN32pxrInternal_v0_24__pxrReserved__19Tf_MallocGlobalData20_ReleaseStackOrDebugEPKNS_17Tf_MallocPathNodeEPKvm(ptr noundef nonnull align 8 dereferenceable(2392) %0, ptr noundef %1, ptr noundef %2, i64 noundef %3) #0 align 2 {
  %5 = alloca ptr, align 8
  %6 = alloca ptr, align 8
  %7 = alloca ptr, align 8
  %8 = alloca i64, align 8
  store ptr %0, ptr %5, align 8
  store ptr %1, ptr %6, align 8
  store ptr %2, ptr %7, align 8
  store i64 %3, ptr %8, align 8
  %9 = load ptr, ptr %5, align 8
  %10 = load ptr, ptr %6, align 8
  %11 = getelementptr inbounds nuw %"struct.pxrInternal_v0_24__pxrReserved__::Tf_MallocPathNode", ptr %10, i32 0, i32 0
  %12 = load ptr, ptr %11, align 8
  %13 = getelementptr inbounds nuw %"struct.pxrInternal_v0_24__pxrReserved__::Tf_MallocCallSite", ptr %12, i32 0, i32 2
  %14 = load i32, ptr %13, align 8
  %15 = and i32 %14, 1
  %16 = icmp ne i32 %15, 0
  br i1 %16, label %17, label %20

17:                                               ; preds = %4
  %18 = getelementptr inbounds nuw %"struct.pxrInternal_v0_24__pxrReserved__::Tf_MallocGlobalData", ptr %9, i32 0, i32 9
  %19 = call noundef zeroext i1 @_ZN3tbb6detail2d219concurrent_hash_mapIPKvN32pxrInternal_v0_24__pxrReserved__11TfMallocTag13CallStackInfoENS0_2d116tbb_hash_compareIS4_EENS8_13tbb_allocatorISt4pairIKS4_S7_EEEE5eraseERSD_(ptr noundef nonnull align 8 dereferenceable(570) %18, ptr noundef nonnull align 8 dereferenceable(8) %7)
  br label %20

20:                                               ; preds = %17, %4
  %21 = load ptr, ptr %6, align 8
  %22 = getelementptr inbounds nuw %"struct.pxrInternal_v0_24__pxrReserved__::Tf_MallocPathNode", ptr %21, i32 0, i32 0
  %23 = load ptr, ptr %22, align 8
  %24 = getelementptr inbounds nuw %"struct.pxrInternal_v0_24__pxrReserved__::Tf_MallocCallSite", ptr %23, i32 0, i32 2
  %25 = load i32, ptr %24, align 8
  %26 = and i32 %25, 2
  %27 = icmp ne i32 %26, 0
  br i1 %27, label %28, label %31

28:                                               ; preds = %20
  %29 = load ptr, ptr %7, align 8
  %30 = load i64, ptr %8, align 8
  call void @_ZN32pxrInternal_v0_24__pxrReserved__L21Tf_MallocTagDebugHookEPKvm(ptr noundef %29, i64 noundef %30)
  br label %31

31:                                               ; preds = %28, %20
  ret void
}