; Function Attrs: mustprogress uwtable
define void @_ZN32pxrInternal_v0_24__pxrReserved__19Tf_MallocGlobalData20_ReleaseStackOrDebugEPKNS_17Tf_MallocPathNodeEPKvm(ptr noundef nonnull align 8 dereferenceable(2392) %0, ptr nocapture noundef readonly %1, ptr noundef %2, i64 noundef %3) local_unnamed_addr #0 align 2 {
  %5 = alloca ptr, align 8
  store ptr %2, ptr %5, align 8
  %6 = load ptr, ptr %1, align 8
  %7 = getelementptr inbounds nuw i8, ptr %6, i64 16
  %8 = load i32, ptr %7, align 8
  %9 = and i32 %8, 1
  %.not = icmp eq i32 %9, 0
  br i1 %.not, label %13, label %10

10:                                               ; preds = %4
  %11 = getelementptr inbounds nuw i8, ptr %0, i64 1816
  %12 = call noundef zeroext i1 @_ZN3tbb6detail2d219concurrent_hash_mapIPKvN32pxrInternal_v0_24__pxrReserved__11TfMallocTag13CallStackInfoENS0_2d116tbb_hash_compareIS4_EENS8_13tbb_allocatorISt4pairIKS4_S7_EEEE14internal_eraseIS4_EEbRKT_(ptr noundef nonnull align 8 dereferenceable(570) %11, ptr noundef nonnull align 8 dereferenceable(8) %5)
  %.pre = load ptr, ptr %1, align 8
  %.phi.trans.insert = getelementptr inbounds nuw i8, ptr %.pre, i64 16
  %.pre4 = load i32, ptr %.phi.trans.insert, align 8
  br label %13

13:                                               ; preds = %10, %4
  %14 = phi i32 [ %.pre4, %10 ], [ %8, %4 ]
  %15 = and i32 %14, 2
  %.not3 = icmp eq i32 %15, 0
  br i1 %.not3, label %17, label %16

16:                                               ; preds = %13
  call void @_ZN32pxrInternal_v0_24__pxrReserved__16ArchDebuggerTrapEv()
  call void asm sideeffect "", "~{dirflag},~{fpsr},~{flags}"() #17, !srcloc !30
  br label %17

17:                                               ; preds = %16, %13
  ret void
}